; Function Attrs: nounwind uwtable
define internal void @xorhmacsig_to_PrivateKeyInfo_pem_free_object(ptr noundef %0) #0 {
  br label %2

2:                                                ; preds = %4, %1
  %.0.i.i = phi ptr [ @xor_xorhmacsig_keymgmt_functions, %1 ], [ %5, %4 ]
  %3 = load i32, ptr %.0.i.i, align 8, !tbaa !19
  switch i32 %3, label %4 [
    i32 0, label %xor_prov_free_key.exit
    i32 10, label %xor_prov_get_keymgmt_free.exit.i
  ]

4:                                                ; preds = %2
  %5 = getelementptr inbounds nuw i8, ptr %.0.i.i, i64 16
  br label %2, !llvm.loop !65

xor_prov_get_keymgmt_free.exit.i:                 ; preds = %2
  %6 = getelementptr i8, ptr %.0.i.i, i64 8
  %.0.val.i.i = load ptr, ptr %6, align 8, !tbaa !21
  %.not.i = icmp eq ptr %.0.val.i.i, null
  br i1 %.not.i, label %xor_prov_free_key.exit, label %7

7:                                                ; preds = %xor_prov_get_keymgmt_free.exit.i
  tail call void %.0.val.i.i(ptr noundef %0) #16
  br label %xor_prov_free_key.exit

xor_prov_free_key.exit:                           ; preds = %2, %xor_prov_get_keymgmt_free.exit.i, %7
  ret void
}